target datalayout = "e-m:e-p270:32:32-p271:32:32-p272:64:64-i64:64-i128:128-f80:128-n8:16:32:64-S128"
target triple = "x86_64-pc-linux-gnu"

@.str.46 = private unnamed_addr constant [7 x i8] c"BIGNUM\00", align 1
@.str.52 = private unnamed_addr constant [6 x i8] c"abs==\00", align 1

; Function Attrs: nounwind uwtable
define i32 @test_BN_abs_eq_word(ptr noundef %0, i32 noundef %1, ptr noundef %2, ptr noundef %3, ptr noundef %4, i64 noundef %5) #0 {
  %7 = alloca i32, align 4
  %8 = alloca ptr, align 8
  %9 = alloca i32, align 4
  %10 = alloca ptr, align 8
  %11 = alloca ptr, align 8
  %12 = alloca ptr, align 8
  %13 = alloca i64, align 8
  %14 = alloca ptr, align 8
  %15 = alloca ptr, align 8
  %16 = alloca i32, align 4
  store ptr %0, ptr %8, align 8, !tbaa !3
  store i32 %1, ptr %9, align 4, !tbaa !8
  store ptr %2, ptr %10, align 8, !tbaa !3
  store ptr %3, ptr %11, align 8, !tbaa !3
  store ptr %4, ptr %12, align 8, !tbaa !18
  store i64 %5, ptr %13, align 8, !tbaa !13
  call void @llvm.lifetime.start.p0(i64 8, ptr %14) #7
  call void @llvm.lifetime.start.p0(i64 8, ptr %15) #7
  %17 = load ptr, ptr %12, align 8, !tbaa !18
  %18 = icmp ne ptr %17, null
  br i1 %18, label %19, label %25

19:                                               ; preds = %6
  %20 = load ptr, ptr %12, align 8, !tbaa !18
  %21 = load i64, ptr %13, align 8, !tbaa !13
  %22 = call i32 @BN_abs_is_word(ptr noundef %20, i64 noundef %21)
  %23 = icmp ne i32 %22, 0
  br i1 %23, label %24, label %25

24:                                               ; preds = %19
  store i32 1, ptr %7, align 4
  store i32 1, ptr %16, align 4
  br label %47

25:                                               ; preds = %19, %6
  %26 = load ptr, ptr %12, align 8, !tbaa !18
  %27 = call ptr @BN_dup(ptr noundef %26)
  store ptr %27, ptr %15, align 8, !tbaa !18
  %28 = icmp ne ptr %27, null
  br i1 %28, label %29, label %31

29:                                               ; preds = %25
  %30 = load ptr, ptr %15, align 8, !tbaa !18
  call void @BN_set_negative(ptr noundef %30, i32 noundef 0)
  br label %31

31:                                               ; preds = %29, %25
  %32 = call ptr @BN_new()
  store ptr %32, ptr %14, align 8, !tbaa !18
  %33 = icmp ne ptr %32, null
  br i1 %33, label %34, label %38

34:                                               ; preds = %31
  %35 = load ptr, ptr %14, align 8, !tbaa !18
  %36 = load i64, ptr %13, align 8, !tbaa !13
  %37 = call i32 @BN_set_word(ptr noundef %35, i64 noundef %36)
  br label %38

38:                                               ; preds = %34, %31
  %39 = load ptr, ptr %8, align 8, !tbaa !3
  %40 = load i32, ptr %9, align 4, !tbaa !8
  %41 = load ptr, ptr %10, align 8, !tbaa !3
  %42 = load ptr, ptr %11, align 8, !tbaa !3
  %43 = load ptr, ptr %15, align 8, !tbaa !18
  %44 = load ptr, ptr %14, align 8, !tbaa !18
  call void @test_fail_bignum_message(ptr noundef null, ptr noundef %39, i32 noundef %40, ptr noundef @.str.46, ptr noundef %41, ptr noundef %42, ptr noundef @.str.52, ptr noundef %43, ptr noundef %44)
  %45 = load ptr, ptr %14, align 8, !tbaa !18
  call void @BN_free(ptr noundef %45)
  %46 = load ptr, ptr %15, align 8, !tbaa !18
  call void @BN_free(ptr noundef %46)
  store i32 0, ptr %7, align 4
  store i32 1, ptr %16, align 4
  br label %47

47:                                               ; preds = %38, %24
  call void @llvm.lifetime.end.p0(i64 8, ptr %15) #7
  call void @llvm.lifetime.end.p0(i64 8, ptr %14) #7
  %48 = load i32, ptr %7, align 4
  ret i32 %48
}