; Function Attrs: nounwind uwtable
define range(i32 0, 2) i32 @test_BN_abs_eq_word(ptr noundef %0, i32 noundef %1, ptr noundef %2, ptr noundef %3, ptr noundef %4, i64 noundef %5) local_unnamed_addr #0 {
  %.not = icmp eq ptr %4, null
  br i1 %.not, label %9, label %7

7:                                                ; preds = %6
  %8 = tail call i32 @BN_abs_is_word(ptr noundef nonnull %4, i64 noundef %5) #8
  %.not18 = icmp eq i32 %8, 0
  br i1 %.not18, label %9, label %17

9:                                                ; preds = %7, %6
  %10 = tail call ptr @BN_dup(ptr noundef %4) #8
  %.not19 = icmp eq ptr %10, null
  br i1 %.not19, label %12, label %11

11:                                               ; preds = %9
  tail call void @BN_set_negative(ptr noundef nonnull %10, i32 noundef 0) #8
  br label %12

12:                                               ; preds = %11, %9
  %13 = tail call ptr @BN_new() #8
  %.not20 = icmp eq ptr %13, null
  br i1 %.not20, label %16, label %14

14:                                               ; preds = %12
  %15 = tail call i32 @BN_set_word(ptr noundef nonnull %13, i64 noundef %5) #8
  br label %16

16:                                               ; preds = %14, %12
  tail call void @test_fail_bignum_message(ptr noundef null, ptr noundef %0, i32 noundef %1, ptr noundef nonnull @.str.46, ptr noundef %2, ptr noundef %3, ptr noundef nonnull @.str.52, ptr noundef %10, ptr noundef %13) #8
  tail call void @BN_free(ptr noundef %13) #8
  tail call void @BN_free(ptr noundef %10) #8
  br label %17

17:                                               ; preds = %7, %16
  %.0 = phi i32 [ 0, %16 ], [ 1, %7 ]
  ret i32 %.0
}